(dp1
S'output'
p2
S"<type 'exceptions.TypeError'> __init__() got an unexpected keyword argument 'requeris'"
p3
sS'layer'
p4
S'/home/isvaldo/workspace/Trabalhos-Faculdade/Estrutura de dados II/web2py/applications/welcome/controllers/default.py'
p5
sS'code'
p6
S'# -*- coding: utf-8 -*-\n# this file is released under public domain and you can use without limitations\n\n#########################################################################\n## This is a sample controller\n## - index is the default action of any application\n## - user is required for authentication and authorization\n## - download is for downloading files uploaded in the db (does streaming)\n#########################################################################\n#from applications.examples.controllers.form_examples import form\nimport random\n\n\ndef index():\n    \'\'\'\n    Formulario de entrada\n    :return:\n    \'\'\'\n    templete = random.randint(1, 5)\n    response.flash = "Templete "+str(templete)\n\n    form = SQLFORM.factory(\n        Field(\'select\', requeris=IS_IN_SET(["MDC", "MDC RECURSIVO", "MAX"]))\n    )\n\n    if form.process().accepted:\n        print form.vars\n\n    return dict(form=form, templete=templete)\n\ndef teste():\n    return dict()\n\n\ndef max_no_recursive():\n    form = SQLFORM.factory(\n        Field(\'a\', label="Entrada A"),\n        Field(\'b\', label="Entrada B")\n    )\n    return dict(form=form)\n\ndef max_recursive():\n    form = SQLFORM.factory(\n        Field(\'a\', label="Entrada A"),\n        Field(\'b\', label="Entrada B")\n    )\n    return dict(form=form)\n\n\ndef get_max():\n    form = SQLFORM.factory(\n        Field(\'a\', label="Entrada A"),\n        Field(\'b\', label="Entrada B")\n    )\n    return dict()\n\ndef user():\n    """\n    exposes:\n    http://..../[app]/default/user/login\n    http://..../[app]/default/user/logout\n    http://..../[app]/default/user/register\n    http://..../[app]/default/user/profile\n    http://..../[app]/default/user/retrieve_password\n    http://..../[app]/default/user/change_password\n    http://..../[app]/default/user/manage_users (requires membership in\n    use @auth.requires_login()\n        @auth.requires_membership(\'group name\')\n        @auth.requires_permission(\'read\',\'table name\',record_id)\n    to decorate functions that need access control\n    """\n    return dict(form=auth())\n\n\n@cache.action()\ndef download():\n    """\n    allows downloading of uploaded files\n    http://..../[app]/default/download/[filename]\n    """\n    return response.download(request, db)\n\n\ndef call():\n    """\n    exposes services. for example:\n    http://..../[app]/default/call/jsonrpc\n    decorate with @services.jsonrpc the functions to expose\n    supports xml, json, xmlrpc, jsonrpc, amfrpc, rss, csv\n    """\n    return service()\n\n\n\nresponse._vars=response._caller(index)\n'
p7
sS'snapshot'
p8
(dp9
sS'traceback'
p10
S'Traceback (most recent call last):\n  File "/home/isvaldo/workspace/Trabalhos-Faculdade/Estrutura de dados II/web2py/gluon/restricted.py", line 227, in restricted\n    exec ccode in environment\n  File "/home/isvaldo/workspace/Trabalhos-Faculdade/Estrutura de dados II/web2py/applications/welcome/controllers/default.py", line 95, in <module>\n  File "/home/isvaldo/workspace/Trabalhos-Faculdade/Estrutura de dados II/web2py/gluon/globals.py", line 393, in <lambda>\n    self._caller = lambda f: f()\n  File "/home/isvaldo/workspace/Trabalhos-Faculdade/Estrutura de dados II/web2py/applications/welcome/controllers/default.py", line 23, in index\n    Field(\'select\', requeris=IS_IN_SET(["MDC", "MDC RECURSIVO", "MAX"]))\nTypeError: __init__() got an unexpected keyword argument \'requeris\'\n'
p11
s.